; Function Attrs: mustprogress uwtable
define dso_local noundef i32 @_ZNK4base12SampleVector8GetCountEi(ptr noundef nonnull align 8 dereferenceable(88) %this, i32 noundef %value) unnamed_addr #0 align 2 personality ptr @__gxx_personality_v0 {
entry:
  %vtable = load ptr, ptr %this, align 8
  %vfn = getelementptr inbounds i8, ptr %vtable, i64 88
  %0 = load ptr, ptr %vfn, align 8
  %call = tail call noundef i64 %0(ptr noundef nonnull align 8 dereferenceable(88) %this, i32 noundef %value)
  %counts_ = getelementptr inbounds i8, ptr %this, i64 64
  %1 = load ptr, ptr %counts_, align 8
  %arrayidx = getelementptr inbounds i32, ptr %1, i64 %call
  %2 = load atomic volatile i32, ptr %arrayidx monotonic, align 4
  ret i32 %2
}